; Function Attrs: mustprogress uwtable
define internal void @_ZN8facebook5velox10serializer6presto12_GLOBAL__N_122PrestoVectorSerializer6appendERKSt10shared_ptrINS0_9RowVectorEERKN5folly5RangeIPKiEERNS0_7ScratchE(ptr nocapture noundef nonnull align 8 dereferenceable(56) %this, ptr nocapture noundef nonnull readonly align 8 dereferenceable(16) %vector, ptr noundef nonnull align 8 dereferenceable(16) %rows, ptr noundef nonnull align 8 dereferenceable(24) %scratch) unnamed_addr #0 align 2 {
entry:
  %e_.i = getelementptr inbounds i8, ptr %rows, i64 8
  %0 = load ptr, ptr %e_.i, align 8
  %1 = load ptr, ptr %rows, align 8
  %cmp.not = icmp eq ptr %0, %1
  br i1 %cmp.not, label %if.end, label %if.then

if.then:                                          ; preds = %entry
  %sub.ptr.rhs.cast.i = ptrtoint ptr %1 to i64
  %sub.ptr.lhs.cast.i = ptrtoint ptr %0 to i64
  %sub.ptr.sub.i = sub i64 %sub.ptr.lhs.cast.i, %sub.ptr.rhs.cast.i
  %sub.ptr.div.i = lshr exact i64 %sub.ptr.sub.i, 2
  %numRows_ = getelementptr inbounds i8, ptr %this, i64 24
  %2 = load i32, ptr %numRows_, align 8
  %3 = trunc i64 %sub.ptr.div.i to i32
  %conv2 = add i32 %2, %3
  store i32 %conv2, ptr %numRows_, align 8
  %4 = load ptr, ptr %vector, align 8
  %childrenSize_.i8 = getelementptr inbounds i8, ptr %4, i64 104
  %5 = load i64, ptr %childrenSize_.i8, align 8
  %cmp69.not = icmp eq i64 %5, 0
  br i1 %cmp69.not, label %if.end, label %_ZN8facebook5velox9RowVector7childAtEj.exit.lr.ph

_ZN8facebook5velox9RowVector7childAtEj.exit.lr.ph: ; preds = %if.then
  %streams_ = getelementptr inbounds i8, ptr %this, i64 32
  br label %_ZN8facebook5velox9RowVector7childAtEj.exit

_ZN8facebook5velox9RowVector7childAtEj.exit:      ; preds = %_ZN8facebook5velox9RowVector7childAtEj.exit.lr.ph, %_ZN8facebook5velox9RowVector7childAtEj.exit
  %indvars.iv = phi i64 [ 0, %_ZN8facebook5velox9RowVector7childAtEj.exit.lr.ph ], [ %indvars.iv.next, %_ZN8facebook5velox9RowVector7childAtEj.exit ]
  %6 = phi ptr [ %4, %_ZN8facebook5velox9RowVector7childAtEj.exit.lr.ph ], [ %9, %_ZN8facebook5velox9RowVector7childAtEj.exit ]
  %children_.i = getelementptr inbounds i8, ptr %6, i64 112
  %7 = load ptr, ptr %children_.i, align 8
  %add.ptr.i.i = getelementptr inbounds %"class.std::shared_ptr", ptr %7, i64 %indvars.iv
  %8 = load ptr, ptr %add.ptr.i.i, align 8
  %streams_.val = load ptr, ptr %streams_, align 8
  %add.ptr.i = getelementptr inbounds %"class.std::unique_ptr.316", ptr %streams_.val, i64 %indvars.iv
  %call11.val = load ptr, ptr %add.ptr.i, align 8
  tail call fastcc void @_ZN8facebook5velox10serializer6presto12_GLOBAL__N_115serializeColumnEPKNS0_10BaseVectorERKN5folly5RangeIPKiEEPNS3_12VectorStreamERNS0_7ScratchE(ptr noundef %8, ptr noundef nonnull align 8 dereferenceable(16) %rows, ptr noundef %call11.val, ptr noundef nonnull align 8 dereferenceable(24) %scratch)
  %indvars.iv.next = add nuw nsw i64 %indvars.iv, 1
  %9 = load ptr, ptr %vector, align 8
  %childrenSize_.i = getelementptr inbounds i8, ptr %9, i64 104
  %10 = load i64, ptr %childrenSize_.i, align 8
  %cmp6 = icmp ugt i64 %10, %indvars.iv.next
  br i1 %cmp6, label %_ZN8facebook5velox9RowVector7childAtEj.exit, label %if.end, !llvm.loop !557

if.end:                                           ; preds = %_ZN8facebook5velox9RowVector7childAtEj.exit, %if.then, %entry
  ret void
}